#include <math.h>
#include <stdio.h>
#include <stdlib.h>
#include <string.h>

int main()
{
    int n,a,b,c,d;
    scanf("%d",&n);
    if(n/10000==1)
    printf("00001");
    else if(n/1000!=0)
    { a=n;
      b=a%10;
      a=a/10;
      c=a%10;
      a=a/10;
      d=a%10;
      a=a/10;
      printf("%d%d%d%d",b,c,d,a);
    }
    else if(n/100!=0)
    {
     a=n;
      b=a%10;
      a=a/10;
      c=a%10;
      a=a/10;
      printf("%d%d%d",b,c,a);
      }
      else if(n/10!=0)
       {
       a=n;
       b=a%10;
       a=a/10;
       printf("%d%d",b,a);
       }
       else printf("%d",n);
       return 0;
}
