; ModuleID = '16/251.c'
source_filename = "16/251.c"
target datalayout = "e-m:e-p270:32:32-p271:32:32-p272:64:64-i64:64-f80:128-n8:16:32:64-S128"
target triple = "x86_64-pc-linux-gnu"

@.str = private unnamed_addr constant [3 x i8] c"%d\00", align 1
@.str.1 = private unnamed_addr constant [6 x i8] c"00001\00", align 1
@.str.2 = private unnamed_addr constant [9 x i8] c"%d%d%d%d\00", align 1
@.str.3 = private unnamed_addr constant [7 x i8] c"%d%d%d\00", align 1
@.str.4 = private unnamed_addr constant [5 x i8] c"%d%d\00", align 1

; Function Attrs: noinline nounwind uwtable
define dso_local i32 @main() #0 {
  %1 = alloca i32, align 4
  %2 = alloca i32, align 4
  %3 = alloca i32, align 4
  %4 = alloca i32, align 4
  %5 = alloca i32, align 4
  %6 = alloca i32, align 4
  store i32 0, i32* %1, align 4
  %7 = call i32 (i8*, ...) @__isoc99_scanf(i8* getelementptr inbounds ([3 x i8], [3 x i8]* @.str, i64 0, i64 0), i32* %2)
  %8 = load i32, i32* %2, align 4
  %9 = sdiv i32 %8, 10000
  %10 = icmp eq i32 %9, 1
  br i1 %10, label %11, label %13

11:                                               ; preds = %0
  %12 = call i32 (i8*, ...) @printf(i8* getelementptr inbounds ([6 x i8], [6 x i8]* @.str.1, i64 0, i64 0))
  br label %73

13:                                               ; preds = %0
  %14 = load i32, i32* %2, align 4
  %15 = sdiv i32 %14, 1000
  %16 = icmp ne i32 %15, 0
  br i1 %16, label %17, label %36

17:                                               ; preds = %13
  %18 = load i32, i32* %2, align 4
  store i32 %18, i32* %3, align 4
  %19 = load i32, i32* %3, align 4
  %20 = srem i32 %19, 10
  store i32 %20, i32* %4, align 4
  %21 = load i32, i32* %3, align 4
  %22 = sdiv i32 %21, 10
  store i32 %22, i32* %3, align 4
  %23 = load i32, i32* %3, align 4
  %24 = srem i32 %23, 10
  store i32 %24, i32* %5, align 4
  %25 = load i32, i32* %3, align 4
  %26 = sdiv i32 %25, 10
  store i32 %26, i32* %3, align 4
  %27 = load i32, i32* %3, align 4
  %28 = srem i32 %27, 10
  store i32 %28, i32* %6, align 4
  %29 = load i32, i32* %3, align 4
  %30 = sdiv i32 %29, 10
  store i32 %30, i32* %3, align 4
  %31 = load i32, i32* %4, align 4
  %32 = load i32, i32* %5, align 4
  %33 = load i32, i32* %6, align 4
  %34 = load i32, i32* %3, align 4
  %35 = call i32 (i8*, ...) @printf(i8* getelementptr inbounds ([9 x i8], [9 x i8]* @.str.2, i64 0, i64 0), i32 %31, i32 %32, i32 %33, i32 %34)
  br label %72

36:                                               ; preds = %13
  %37 = load i32, i32* %2, align 4
  %38 = sdiv i32 %37, 100
  %39 = icmp ne i32 %38, 0
  br i1 %39, label %40, label %54

40:                                               ; preds = %36
  %41 = load i32, i32* %2, align 4
  store i32 %41, i32* %3, align 4
  %42 = load i32, i32* %3, align 4
  %43 = srem i32 %42, 10
  store i32 %43, i32* %4, align 4
  %44 = load i32, i32* %3, align 4
  %45 = sdiv i32 %44, 10
  store i32 %45, i32* %3, align 4
  %46 = load i32, i32* %3, align 4
  %47 = srem i32 %46, 10
  store i32 %47, i32* %5, align 4
  %48 = load i32, i32* %3, align 4
  %49 = sdiv i32 %48, 10
  store i32 %49, i32* %3, align 4
  %50 = load i32, i32* %4, align 4
  %51 = load i32, i32* %5, align 4
  %52 = load i32, i32* %3, align 4
  %53 = call i32 (i8*, ...) @printf(i8* getelementptr inbounds ([7 x i8], [7 x i8]* @.str.3, i64 0, i64 0), i32 %50, i32 %51, i32 %52)
  br label %71

54:                                               ; preds = %36
  %55 = load i32, i32* %2, align 4
  %56 = sdiv i32 %55, 10
  %57 = icmp ne i32 %56, 0
  br i1 %57, label %58, label %67

58:                                               ; preds = %54
  %59 = load i32, i32* %2, align 4
  store i32 %59, i32* %3, align 4
  %60 = load i32, i32* %3, align 4
  %61 = srem i32 %60, 10
  store i32 %61, i32* %4, align 4
  %62 = load i32, i32* %3, align 4
  %63 = sdiv i32 %62, 10
  store i32 %63, i32* %3, align 4
  %64 = load i32, i32* %4, align 4
  %65 = load i32, i32* %3, align 4
  %66 = call i32 (i8*, ...) @printf(i8* getelementptr inbounds ([5 x i8], [5 x i8]* @.str.4, i64 0, i64 0), i32 %64, i32 %65)
  br label %70

67:                                               ; preds = %54
  %68 = load i32, i32* %2, align 4
  %69 = call i32 (i8*, ...) @printf(i8* getelementptr inbounds ([3 x i8], [3 x i8]* @.str, i64 0, i64 0), i32 %68)
  br label %70

70:                                               ; preds = %67, %58
  br label %71

71:                                               ; preds = %70, %40
  br label %72

72:                                               ; preds = %71, %17
  br label %73

73:                                               ; preds = %72, %11
  ret i32 0
}

declare dso_local i32 @__isoc99_scanf(i8*, ...) #1

declare dso_local i32 @printf(i8*, ...) #1


!llvm.module.flags = !{!0}
!llvm.ident = !{!1}

!0 = !{i32 1, !"wchar_size", i32 4}
!1 = !{!"clang version 10.0.0-4ubuntu1 "}
