; ModuleID = 'source-C-CXX/15/251.c'
source_filename = "source-C-CXX/15/251.c"
target datalayout = "e-m:e-p270:32:32-p271:32:32-p272:64:64-i64:64-f80:128-n8:16:32:64-S128"
target triple = "x86_64-pc-linux-gnu"

@.str = private unnamed_addr constant [3 x i8] c"%d\00", align 1
@.str.1 = private unnamed_addr constant [6 x i8] c"00001\00", align 1
@.str.2 = private unnamed_addr constant [9 x i8] c"%d%d%d%d\00", align 1
@.str.3 = private unnamed_addr constant [7 x i8] c"%d%d%d\00", align 1
@.str.4 = private unnamed_addr constant [5 x i8] c"%d%d\00", align 1

; Function Attrs: nofree nounwind sspstrong uwtable
define dso_local i32 @main() local_unnamed_addr #0 {
  %1 = alloca i32, align 4
  %2 = bitcast i32* %1 to i8*
  call void @llvm.lifetime.start.p0i8(i64 4, i8* nonnull %2) #3
  %3 = call i32 (i8*, ...) @__isoc99_scanf(i8* getelementptr inbounds ([3 x i8], [3 x i8]* @.str, i64 0, i64 0), i32* nonnull %1)
  %4 = load i32, i32* %1, align 4, !tbaa !5
  %5 = add i32 %4, -10000
  %6 = icmp ult i32 %5, 10000
  br i1 %6, label %7, label %9

7:                                                ; preds = %0
  %8 = call i32 (i8*, ...) @printf(i8* nonnull dereferenceable(1) getelementptr inbounds ([6 x i8], [6 x i8]* @.str.1, i64 0, i64 0))
  br label %46

9:                                                ; preds = %0
  %10 = add i32 %4, 999
  %11 = icmp ult i32 %10, 1999
  br i1 %11, label %20, label %12

12:                                               ; preds = %9
  %13 = srem i32 %4, 10
  %14 = sdiv i32 %4, 10
  %15 = srem i32 %14, 10
  %16 = sdiv i32 %4, 100
  %17 = srem i32 %16, 10
  %18 = sdiv i32 %4, 1000
  %19 = call i32 (i8*, ...) @printf(i8* nonnull dereferenceable(1) getelementptr inbounds ([9 x i8], [9 x i8]* @.str.2, i64 0, i64 0), i32 %13, i32 %15, i32 %17, i32 %18)
  br label %46

20:                                               ; preds = %9
  %21 = add nsw i32 %4, 99
  %22 = icmp ult i32 %21, 199
  br i1 %22, label %34, label %23

23:                                               ; preds = %20
  %24 = trunc i32 %4 to i16
  %25 = srem i16 %24, 10
  %26 = sext i16 %25 to i32
  %27 = sdiv i16 %24, 10
  %28 = trunc i16 %27 to i8
  %29 = srem i8 %28, 10
  %30 = sext i8 %29 to i32
  %31 = sdiv i16 %24, 100
  %32 = sext i16 %31 to i32
  %33 = call i32 (i8*, ...) @printf(i8* nonnull dereferenceable(1) getelementptr inbounds ([7 x i8], [7 x i8]* @.str.3, i64 0, i64 0), i32 %26, i32 %30, i32 %32)
  br label %46

34:                                               ; preds = %20
  %35 = add nsw i32 %4, 9
  %36 = icmp ult i32 %35, 19
  br i1 %36, label %44, label %37

37:                                               ; preds = %34
  %38 = trunc i32 %4 to i8
  %39 = sdiv i8 %38, 10
  %40 = sext i8 %39 to i32
  %41 = srem i8 %38, 10
  %42 = sext i8 %41 to i32
  %43 = call i32 (i8*, ...) @printf(i8* nonnull dereferenceable(1) getelementptr inbounds ([5 x i8], [5 x i8]* @.str.4, i64 0, i64 0), i32 %42, i32 %40)
  br label %46

44:                                               ; preds = %34
  %45 = call i32 (i8*, ...) @printf(i8* nonnull dereferenceable(1) getelementptr inbounds ([3 x i8], [3 x i8]* @.str, i64 0, i64 0), i32 %4)
  br label %46

46:                                               ; preds = %12, %37, %44, %23, %7
  call void @llvm.lifetime.end.p0i8(i64 4, i8* nonnull %2) #3
  ret i32 0
}

; Function Attrs: argmemonly mustprogress nofree nosync nounwind willreturn
declare void @llvm.lifetime.start.p0i8(i64 immarg, i8* nocapture) #1

; Function Attrs: nofree nounwind
declare noundef i32 @__isoc99_scanf(i8* nocapture noundef readonly, ...) local_unnamed_addr #2

; Function Attrs: nofree nounwind
declare noundef i32 @printf(i8* nocapture noundef readonly, ...) local_unnamed_addr #2

; Function Attrs: argmemonly mustprogress nofree nosync nounwind willreturn
declare void @llvm.lifetime.end.p0i8(i64 immarg, i8* nocapture) #1


!llvm.module.flags = !{!0, !1, !2, !3}
!llvm.ident = !{!4}

!0 = !{i32 1, !"wchar_size", i32 4}
!1 = !{i32 7, !"PIC Level", i32 2}
!2 = !{i32 7, !"PIE Level", i32 2}
!3 = !{i32 7, !"uwtable", i32 1}
!4 = !{!"clang version 13.0.0"}
!5 = !{!6, !6, i64 0}
!6 = !{!"int", !7, i64 0}
!7 = !{!"omnipotent char", !8, i64 0}
!8 = !{!"Simple C/C++ TBAA"}
